; Function Attrs: null_pointer_is_valid sspstrong uwtable
define internal void @dis_iei_vp(ptr noundef %0, ptr noundef %1, ptr noundef %2, i32 noundef %3, i8 noundef zeroext %4, ptr readnone captures(none) %5) unnamed_addr #0 {
  %7 = zext i8 %4 to i32
  %8 = icmp ult i8 %4, 4
  br i1 %8, label %9, label %11

9:                                                ; preds = %6
  %10 = tail call ptr @proto_tree_add_expert(ptr noundef %2, ptr noundef %1, ptr noundef nonnull @ei_gsm_sms_short_data, ptr noundef %0, i32 noundef %3, i32 noundef %7)
  br label %24

11:                                               ; preds = %6
  %12 = load i32, ptr @hf_gsm_sms_dis_iei_vp_position, align 4
  %13 = tail call ptr @proto_tree_add_item(ptr noundef %2, i32 noundef %12, ptr noundef %0, i32 noundef %3, i32 noundef 1, i32 noundef 0)
  %14 = add i32 %3, 1
  %15 = load i32, ptr @hf_gsm_sms_dis_iei_vp_horizontal_dimension, align 4
  %16 = tail call ptr @proto_tree_add_item(ptr noundef %2, i32 noundef %15, ptr noundef %0, i32 noundef %14, i32 noundef 1, i32 noundef 0)
  %17 = add i32 %3, 2
  %18 = load i32, ptr @hf_gsm_sms_dis_iei_vp_vertical_dimension, align 4
  %19 = tail call ptr @proto_tree_add_item(ptr noundef %2, i32 noundef %18, ptr noundef %0, i32 noundef %17, i32 noundef 1, i32 noundef 0)
  %20 = add i32 %3, 3
  %21 = load i32, ptr @hf_gsm_sms_dis_iei_vp_variable_picture, align 4
  %22 = add nsw i32 %7, -3
  %23 = tail call ptr @proto_tree_add_item(ptr noundef %2, i32 noundef %21, ptr noundef %0, i32 noundef %20, i32 noundef %22, i32 noundef 0)
  br label %24

24:                                               ; preds = %11, %9
  ret void
}